target datalayout = "e-m:e-p270:32:32-p271:32:32-p272:64:64-i64:64-i128:128-f80:128-n8:16:32:64-S128"
target triple = "x86_64-pc-linux-gnu"

%struct.persist_msg_t = type { ptr, ptr, i16 }
%struct.dbd_roll_usage_msg_t = type { i16, i64, i64 }

@plugin_type = dso_local constant [28 x i8] c"accounting_storage/slurmdbd\00", align 16
@.str.69 = private unnamed_addr constant [16 x i8] c"%s: %s: SUCCESS\00", align 1
@__func__.acct_storage_p_roll_usage = private unnamed_addr constant [26 x i8] c"acct_storage_p_roll_usage\00", align 1

; Function Attrs: nounwind uwtable
define dso_local i32 @acct_storage_p_roll_usage(ptr noundef %0, i64 noundef %1, i64 noundef %2, i16 noundef zeroext %3, ptr noundef %4) #0 {
  %6 = alloca ptr, align 8
  %7 = alloca i64, align 8
  %8 = alloca i64, align 8
  %9 = alloca i16, align 2
  %10 = alloca ptr, align 8
  %11 = alloca %struct.persist_msg_t, align 8
  %12 = alloca %struct.dbd_roll_usage_msg_t, align 8
  %13 = alloca i32, align 4
  %14 = alloca i32, align 4
  store ptr %0, ptr %6, align 8
  store i64 %1, ptr %7, align 8
  store i64 %2, ptr %8, align 8
  store i16 %3, ptr %9, align 2
  store ptr %4, ptr %10, align 8
  call void @llvm.lifetime.start.p0(i64 24, ptr %11) #9
  call void @llvm.memset.p0.i64(ptr align 8 %11, i8 0, i64 24, i1 false)
  call void @llvm.lifetime.start.p0(i64 24, ptr %12) #9
  call void @llvm.lifetime.start.p0(i64 4, ptr %13) #9
  call void @llvm.lifetime.start.p0(i64 4, ptr %14) #9
  store i32 0, ptr %14, align 4
  call void @llvm.memset.p0.i64(ptr align 8 %12, i8 0, i64 24, i1 false)
  %15 = load i64, ptr %8, align 8
  %16 = getelementptr inbounds nuw %struct.dbd_roll_usage_msg_t, ptr %12, i32 0, i32 1
  store i64 %15, ptr %16, align 8
  %17 = load i64, ptr %7, align 8
  %18 = getelementptr inbounds nuw %struct.dbd_roll_usage_msg_t, ptr %12, i32 0, i32 2
  store i64 %17, ptr %18, align 8
  %19 = load i16, ptr %9, align 2
  %20 = getelementptr inbounds nuw %struct.dbd_roll_usage_msg_t, ptr %12, i32 0, i32 0
  store i16 %19, ptr %20, align 8
  %21 = getelementptr inbounds nuw %struct.persist_msg_t, ptr %11, i32 0, i32 2
  store i16 1440, ptr %21, align 8
  %22 = load ptr, ptr %6, align 8
  %23 = getelementptr inbounds nuw %struct.persist_msg_t, ptr %11, i32 0, i32 0
  store ptr %22, ptr %23, align 8
  %24 = getelementptr inbounds nuw %struct.persist_msg_t, ptr %11, i32 0, i32 1
  store ptr %12, ptr %24, align 8
  %25 = call i32 @dbd_conn_send_recv_rc_msg(i16 noundef zeroext 11008, ptr noundef %11, ptr noundef %14)
  store i32 %25, ptr %13, align 4
  %26 = load i32, ptr %14, align 4
  %27 = icmp ne i32 %26, 0
  br i1 %27, label %28, label %30

28:                                               ; preds = %5
  %29 = load i32, ptr %14, align 4
  store i32 %29, ptr %13, align 4
  br label %41

30:                                               ; preds = %5
  br label %31

31:                                               ; preds = %30
  br label %32

32:                                               ; preds = %31
  %33 = call i32 @slurm_get_log_level()
  %34 = icmp sge i32 %33, 3
  br i1 %34, label %35, label %36

35:                                               ; preds = %32
  call void (i32, ptr, ...) @slurm_log_var(i32 noundef 3, ptr noundef @.str.69, ptr noundef @plugin_type, ptr noundef @__func__.acct_storage_p_roll_usage)
  br label %36

36:                                               ; preds = %35, %32
  br label %37

37:                                               ; preds = %36
  br label %38

38:                                               ; preds = %37
  br label %39

39:                                               ; preds = %38
  br label %40

40:                                               ; preds = %39
  br label %41

41:                                               ; preds = %40, %28
  %42 = load i32, ptr %13, align 4
  call void @llvm.lifetime.end.p0(i64 4, ptr %14) #9
  call void @llvm.lifetime.end.p0(i64 4, ptr %13) #9
  call void @llvm.lifetime.end.p0(i64 24, ptr %12) #9
  call void @llvm.lifetime.end.p0(i64 24, ptr %11) #9
  ret i32 %42
}