; Function Attrs: nounwind uwtable
define dso_local i32 @acct_storage_p_roll_usage(ptr noundef %0, i64 noundef %1, i64 noundef %2, i16 noundef zeroext %3, ptr noundef readnone captures(none) %4) local_unnamed_addr #0 {
  %6 = alloca %struct.persist_msg_t, align 8
  %7 = alloca %struct.dbd_roll_usage_msg_t, align 8
  %8 = alloca i32, align 4
  call void @llvm.lifetime.start.p0(i64 24, ptr nonnull %6) #11
  %9 = getelementptr inbounds nuw i8, ptr %6, i64 16
  store i64 0, ptr %9, align 8
  call void @llvm.lifetime.start.p0(i64 24, ptr nonnull %7) #11
  call void @llvm.lifetime.start.p0(i64 4, ptr nonnull %8) #11
  store i32 0, ptr %8, align 4
  store i64 0, ptr %7, align 8
  %10 = getelementptr inbounds nuw i8, ptr %7, i64 8
  store i64 %2, ptr %10, align 8
  %11 = getelementptr inbounds nuw i8, ptr %7, i64 16
  store i64 %1, ptr %11, align 8
  store i16 %3, ptr %7, align 8
  %12 = getelementptr inbounds nuw i8, ptr %6, i64 16
  store i16 1440, ptr %12, align 8
  store ptr %0, ptr %6, align 8
  %13 = getelementptr inbounds nuw i8, ptr %6, i64 8
  store ptr %7, ptr %13, align 8
  %14 = call i32 @dbd_conn_send_recv_rc_msg(i16 noundef zeroext 11008, ptr noundef nonnull %6, ptr noundef nonnull %8) #11
  %15 = load i32, ptr %8, align 4
  %.not = icmp eq i32 %15, 0
  br i1 %.not, label %16, label %20

16:                                               ; preds = %5
  %17 = call i32 @slurm_get_log_level() #11
  %18 = icmp sgt i32 %17, 2
  br i1 %18, label %19, label %20

19:                                               ; preds = %16
  call void (i32, ptr, ...) @slurm_log_var(i32 noundef 3, ptr noundef nonnull @.str.69, ptr noundef nonnull @plugin_type, ptr noundef nonnull @__func__.acct_storage_p_roll_usage) #11
  br label %20

20:                                               ; preds = %5, %16, %19
  %.0 = phi i32 [ %14, %19 ], [ %14, %16 ], [ %15, %5 ]
  call void @llvm.lifetime.end.p0(i64 4, ptr nonnull %8) #11
  call void @llvm.lifetime.end.p0(i64 24, ptr nonnull %7) #11
  call void @llvm.lifetime.end.p0(i64 24, ptr nonnull %6) #11
  ret i32 %.0
}